; Function Attrs: mustprogress nofree nounwind uwtable
define hidden noundef zeroext i1 @_ZN2cv8datasets14TRACK_alovImpl11initDatasetEi(ptr noundef nonnull align 8 captures(none) dereferenceable(136) %0, i32 noundef %1) unnamed_addr #11 align 2 {
  %3 = icmp sgt i32 %1, 0
  br i1 %3, label %4, label %._crit_edge

._crit_edge:                                      ; preds = %2
  %.phi.trans.insert = getelementptr inbounds nuw i8, ptr %0, i64 112
  %.pre = load ptr, ptr %.phi.trans.insert, align 8, !tbaa !75
  %.phi.trans.insert5 = getelementptr inbounds nuw i8, ptr %0, i64 104
  %.pre6 = load ptr, ptr %.phi.trans.insert5, align 8, !tbaa !117
  %.pre7 = ptrtoint ptr %.pre to i64
  %.pre8 = ptrtoint ptr %.pre6 to i64
  %.pre10 = sub i64 %.pre7, %.pre8
  %.pre12 = sdiv exact i64 %.pre10, 24
  %.pre14 = trunc i64 %.pre12 to i32
  br label %16

4:                                                ; preds = %2
  %5 = getelementptr inbounds nuw i8, ptr %0, i64 104
  %6 = getelementptr inbounds nuw i8, ptr %0, i64 112
  %7 = load ptr, ptr %6, align 8, !tbaa !75
  %8 = load ptr, ptr %5, align 8, !tbaa !117
  %9 = ptrtoint ptr %7 to i64
  %10 = ptrtoint ptr %8 to i64
  %11 = sub i64 %9, %10
  %12 = sdiv exact i64 %11, 24
  %13 = trunc i64 %12 to i32
  %.not = icmp sgt i32 %1, %13
  br i1 %.not, label %16, label %14

14:                                               ; preds = %4
  %15 = getelementptr inbounds nuw i8, ptr %0, i64 128
  store i32 %1, ptr %15, align 8, !tbaa !202
  br label %18

16:                                               ; preds = %._crit_edge, %4
  %.pre-phi15 = phi i32 [ %.pre14, %._crit_edge ], [ %13, %4 ]
  %17 = tail call i32 (ptr, ...) @printf(ptr noundef nonnull dereferenceable(1) @.str.25, i32 noundef %.pre-phi15)
  br label %18

18:                                               ; preds = %16, %14
  %.0 = phi i1 [ true, %14 ], [ false, %16 ]
  ret i1 %.0
}